; Function Attrs: mustprogress uwtable
define hidden void @_ZN3opt10preprocess9propagateEP4exprR5lbool(ptr noalias sret(%class.ref_vector) align 8 %agg.result, ptr nocapture noundef nonnull readonly align 8 dereferenceable(32) %this, ptr noundef %f, ptr nocapture noundef nonnull writeonly align 4 dereferenceable(4) %is_sat) local_unnamed_addr #3 align 2 personality ptr @__gxx_personality_v0 {
entry:
  %asms = alloca %class.ref_vector, align 8
  %0 = load ptr, ptr %this, align 8
  %1 = ptrtoint ptr %0 to i64
  store i64 %1, ptr %asms, align 8
  %m_nodes.i.i = getelementptr inbounds i8, ptr %asms, i64 8
  store ptr null, ptr %m_nodes.i.i, align 8
  %tobool.not.i.i.i.i = icmp eq ptr %f, null
  br i1 %tobool.not.i.i.i.i, label %if.then.i.i, label %if.then.i.i.i.i

if.then.i.i.i.i:                                  ; preds = %entry
  %m_ref_count.i.i.i.i.i = getelementptr inbounds i8, ptr %f, i64 8
  %2 = load i32, ptr %m_ref_count.i.i.i.i.i, align 4
  %inc.i.i.i.i.i = add i32 %2, 1
  store i32 %inc.i.i.i.i.i, ptr %m_ref_count.i.i.i.i.i, align 4
  br label %if.then.i.i

if.then.i.i:                                      ; preds = %entry, %if.then.i.i.i.i
  invoke void @_ZN6vectorIP4exprLb0EjE13expand_vectorEv(ptr noundef nonnull align 8 dereferenceable(8) %m_nodes.i.i)
          to label %invoke.cont unwind label %lpad

invoke.cont:                                      ; preds = %if.then.i.i
  %.pre.i.i = load ptr, ptr %m_nodes.i.i, align 8
  %arrayidx8.phi.trans.insert.i.i = getelementptr inbounds i8, ptr %.pre.i.i, i64 -4
  %.pre1.i.i = load i32, ptr %arrayidx8.phi.trans.insert.i.i, align 4
  %idx.ext.i.i = zext i32 %.pre1.i.i to i64
  %add.ptr.i.i = getelementptr inbounds ptr, ptr %.pre.i.i, i64 %idx.ext.i.i
  store ptr %f, ptr %add.ptr.i.i, align 8
  %3 = load ptr, ptr %m_nodes.i.i, align 8
  %arrayidx10.i.i = getelementptr inbounds i8, ptr %3, i64 -4
  %4 = load i32, ptr %arrayidx10.i.i, align 4
  %inc.i.i = add i32 %4, 1
  store i32 %inc.i.i, ptr %arrayidx10.i.i, align 4
  %s = getelementptr inbounds i8, ptr %this, i64 8
  %5 = load ptr, ptr %s, align 8
  %6 = load ptr, ptr %m_nodes.i.i, align 8
  %cmp.i.i.i = icmp eq ptr %6, null
  br i1 %cmp.i.i.i, label %_ZNK15ref_vector_coreI4expr19ref_manager_wrapperIS0_11ast_managerEE4sizeEv.exit.i, label %if.end.i.i.i

if.end.i.i.i:                                     ; preds = %invoke.cont
  %arrayidx.i.i.i = getelementptr inbounds i8, ptr %6, i64 -4
  %7 = load i32, ptr %arrayidx.i.i.i, align 4
  br label %_ZNK15ref_vector_coreI4expr19ref_manager_wrapperIS0_11ast_managerEE4sizeEv.exit.i

_ZNK15ref_vector_coreI4expr19ref_manager_wrapperIS0_11ast_managerEE4sizeEv.exit.i: ; preds = %if.end.i.i.i, %invoke.cont
  %retval.0.i.i.i = phi i32 [ %7, %if.end.i.i.i ], [ 0, %invoke.cont ]
  %call3.i2 = invoke noundef i32 @_ZN6solver9check_satEjPKP4expr(ptr noundef nonnull align 8 dereferenceable(96) %5, i32 noundef %retval.0.i.i.i, ptr noundef %6)
          to label %invoke.cont2 unwind label %lpad

invoke.cont2:                                     ; preds = %_ZNK15ref_vector_coreI4expr19ref_manager_wrapperIS0_11ast_managerEE4sizeEv.exit.i
  store i32 %call3.i2, ptr %is_sat, align 4
  %8 = load ptr, ptr %s, align 8
  %vtable = load ptr, ptr %8, align 8
  %vfn = getelementptr inbounds i8, ptr %vtable, i64 336
  %9 = load ptr, ptr %vfn, align 8
  invoke void %9(ptr sret(%class.ref_vector) align 8 %agg.result, ptr noundef nonnull align 8 dereferenceable(96) %8, i32 noundef 1)
          to label %invoke.cont5 unwind label %lpad

invoke.cont5:                                     ; preds = %invoke.cont2
  %10 = load ptr, ptr %m_nodes.i.i, align 8
  %cmp.i.i.i4 = icmp eq ptr %10, null
  br i1 %cmp.i.i.i4, label %_ZN10ref_vectorI4expr11ast_managerED2Ev.exit, label %_ZNK6vectorIP4exprLb0EjE4sizeEv.exit.i.i

_ZNK6vectorIP4exprLb0EjE4sizeEv.exit.i.i:         ; preds = %invoke.cont5
  %arrayidx.i.i.i5 = getelementptr inbounds i8, ptr %10, i64 -4
  %11 = load i32, ptr %arrayidx.i.i.i5, align 4
  %12 = zext i32 %11 to i64
  %add.ptr.i.i6 = getelementptr inbounds ptr, ptr %10, i64 %12
  %cmp3.i.not.i.i = icmp eq i32 %11, 0
  br i1 %cmp3.i.not.i.i, label %if.then.i.i.i.i.i, label %for.body.i.i.i

for.body.i.i.i:                                   ; preds = %_ZNK6vectorIP4exprLb0EjE4sizeEv.exit.i.i, %_ZN15ref_vector_coreI4expr19ref_manager_wrapperIS0_11ast_managerEE7dec_refEPS0_.exit.i.i.i
  %it.04.i.i.i = phi ptr [ %incdec.ptr.i.i.i, %_ZN15ref_vector_coreI4expr19ref_manager_wrapperIS0_11ast_managerEE7dec_refEPS0_.exit.i.i.i ], [ %10, %_ZNK6vectorIP4exprLb0EjE4sizeEv.exit.i.i ]
  %13 = load ptr, ptr %it.04.i.i.i, align 8
  %14 = load ptr, ptr %asms, align 8
  %tobool.not.i.i.i.i.i.i = icmp eq ptr %13, null
  br i1 %tobool.not.i.i.i.i.i.i, label %_ZN15ref_vector_coreI4expr19ref_manager_wrapperIS0_11ast_managerEE7dec_refEPS0_.exit.i.i.i, label %if.then.i.i.i.i.i.i

if.then.i.i.i.i.i.i:                              ; preds = %for.body.i.i.i
  %m_ref_count.i.i.i.i.i.i.i = getelementptr inbounds i8, ptr %13, i64 8
  %15 = load i32, ptr %m_ref_count.i.i.i.i.i.i.i, align 4
  %dec.i.i.i.i.i.i.i = add i32 %15, -1
  store i32 %dec.i.i.i.i.i.i.i, ptr %m_ref_count.i.i.i.i.i.i.i, align 4
  %cmp.i.i.i.i.i.i = icmp eq i32 %dec.i.i.i.i.i.i.i, 0
  br i1 %cmp.i.i.i.i.i.i, label %if.then2.i.i.i.i.i.i, label %_ZN15ref_vector_coreI4expr19ref_manager_wrapperIS0_11ast_managerEE7dec_refEPS0_.exit.i.i.i

if.then2.i.i.i.i.i.i:                             ; preds = %if.then.i.i.i.i.i.i
  invoke void @_ZN11ast_manager11delete_nodeEP3ast(ptr noundef nonnull align 8 dereferenceable(976) %14, ptr noundef nonnull %13)
          to label %_ZN15ref_vector_coreI4expr19ref_manager_wrapperIS0_11ast_managerEE7dec_refEPS0_.exit.i.i.i unwind label %terminate.lpad.i.i

_ZN15ref_vector_coreI4expr19ref_manager_wrapperIS0_11ast_managerEE7dec_refEPS0_.exit.i.i.i: ; preds = %if.then2.i.i.i.i.i.i, %if.then.i.i.i.i.i.i, %for.body.i.i.i
  %incdec.ptr.i.i.i = getelementptr inbounds i8, ptr %it.04.i.i.i, i64 8
  %cmp.i1.i.i = icmp ult ptr %incdec.ptr.i.i.i, %add.ptr.i.i6
  br i1 %cmp.i1.i.i, label %for.body.i.i.i, label %invoke.cont8.i.i, !llvm.loop !4

invoke.cont8.i.i:                                 ; preds = %_ZN15ref_vector_coreI4expr19ref_manager_wrapperIS0_11ast_managerEE7dec_refEPS0_.exit.i.i.i
  %.pre.i.i7 = load ptr, ptr %m_nodes.i.i, align 8
  %tobool.not.i.i.i.i.i = icmp eq ptr %.pre.i.i7, null
  br i1 %tobool.not.i.i.i.i.i, label %_ZN10ref_vectorI4expr11ast_managerED2Ev.exit, label %if.then.i.i.i.i.i

if.then.i.i.i.i.i:                                ; preds = %invoke.cont8.i.i, %_ZNK6vectorIP4exprLb0EjE4sizeEv.exit.i.i
  %16 = phi ptr [ %.pre.i.i7, %invoke.cont8.i.i ], [ %10, %_ZNK6vectorIP4exprLb0EjE4sizeEv.exit.i.i ]
  %add.ptr.i.i.i.i.i.i = getelementptr inbounds i8, ptr %16, i64 -8
  invoke void @_ZN6memory10deallocateEPv(ptr noundef nonnull %add.ptr.i.i.i.i.i.i)
          to label %_ZN10ref_vectorI4expr11ast_managerED2Ev.exit unwind label %terminate.lpad.i.i.i.i

terminate.lpad.i.i.i.i:                           ; preds = %if.then.i.i.i.i.i
  %17 = landingpad { ptr, i32 }
          catch ptr null
  %18 = extractvalue { ptr, i32 } %17, 0
  call void @__clang_call_terminate(ptr %18) #19
  unreachable

terminate.lpad.i.i:                               ; preds = %if.then2.i.i.i.i.i.i
  %19 = landingpad { ptr, i32 }
          catch ptr null
  %20 = extractvalue { ptr, i32 } %19, 0
  call void @__clang_call_terminate(ptr %20) #19
  unreachable

_ZN10ref_vectorI4expr11ast_managerED2Ev.exit:     ; preds = %invoke.cont5, %invoke.cont8.i.i, %if.then.i.i.i.i.i
  ret void

lpad:                                             ; preds = %_ZNK15ref_vector_coreI4expr19ref_manager_wrapperIS0_11ast_managerEE4sizeEv.exit.i, %if.then.i.i, %invoke.cont2
  %21 = landingpad { ptr, i32 }
          cleanup
  call void @_ZN10ref_vectorI4expr11ast_managerED2Ev(ptr noundef nonnull align 8 dereferenceable(16) %asms) #20
  resume { ptr, i32 } %21
}